; Function Attrs: mustprogress uwtable
define void @_ZN5faiss32IndexProductLocalSearchQuantizerC2EimmmNS_10MetricTypeENS_17AdditiveQuantizer13Search_type_tE(ptr noundef nonnull align 8 dereferenceable(424) %0, i32 noundef %1, i64 noundef %2, i64 noundef %3, i64 noundef %4, i32 noundef %5, i32 noundef %6) unnamed_addr #2 align 2 personality ptr @__gxx_personality_v0 {
  store ptr getelementptr inbounds ({ [25 x ptr] }, ptr @_ZTVN5faiss32IndexProductLocalSearchQuantizerE, i64 0, i32 0, i64 2), ptr %0, align 8
  %8 = sext i32 %1 to i64
  %9 = getelementptr inbounds i8, ptr %0, i64 80
  tail call void @_ZN5faiss22IndexAdditiveQuantizerC2ElPNS_17AdditiveQuantizerENS_10MetricTypeE(ptr noundef nonnull align 8 dereferenceable(80) %0, i64 noundef %8, ptr noundef nonnull %9, i32 noundef %5)
  store ptr getelementptr inbounds ({ [25 x ptr] }, ptr @_ZTVN5faiss32IndexProductLocalSearchQuantizerE, i64 0, i32 0, i64 2), ptr %0, align 8
  invoke void @_ZN5faiss27ProductLocalSearchQuantizerC1EmmmmNS_17AdditiveQuantizer13Search_type_tE(ptr noundef nonnull align 8 dereferenceable(344) %9, i64 noundef %8, i64 noundef %2, i64 noundef %3, i64 noundef %4, i32 noundef %6)
          to label %10 unwind label %15

10:                                               ; preds = %7
  %11 = getelementptr inbounds i8, ptr %0, i64 96
  %12 = load i64, ptr %11, align 8
  %13 = getelementptr inbounds i8, ptr %0, i64 40
  store i64 %12, ptr %13, align 8
  %14 = getelementptr inbounds i8, ptr %0, i64 25
  store i8 0, ptr %14, align 1
  ret void

15:                                               ; preds = %7
  %16 = landingpad { ptr, i32 }
          cleanup
  tail call void @_ZN5faiss22IndexAdditiveQuantizerD2Ev(ptr noundef nonnull align 8 dereferenceable(80) %0) #14
  resume { ptr, i32 } %16
}